******************************************************************************
                  MSP430 Linker PC v4.3.3                      
******************************************************************************
>> Linked Tue Dec 02 17:08:41 2014

OUTPUT FILE NAME:   <MAIN_v1.out>
ENTRY POINT SYMBOL: "_c_int00"  address: 00002160


MEMORY CONFIGURATION

         name            origin    length      used     unused   attr    fill
----------------------  --------  ---------  --------  --------  ----  --------
  SFR                   00000000   00000010  00000000  00000010  RWIX
  PERIPHERALS_8BIT      00000010   000000f0  00000000  000000f0  RWIX
  PERIPHERALS_16BIT     00000100   00000100  00000000  00000100  RWIX
  INFOD                 00001000   00000040  00000000  00000040  RWIX
  INFOC                 00001040   00000040  00000000  00000040  RWIX
  INFOB                 00001080   00000040  00000000  00000040  RWIX
  INFOA                 000010c0   00000040  00000000  00000040  RWIX
  RAM                   00001100   00001000  00000584  00000a7c  RWIX
  FLASH                 00002100   0000debe  00000210  0000dcae  RWIX
  INT00                 0000ffc0   00000002  00000002  00000000  RWIX
  INT01                 0000ffc2   00000002  00000002  00000000  RWIX
  INT02                 0000ffc4   00000002  00000002  00000000  RWIX
  INT03                 0000ffc6   00000002  00000002  00000000  RWIX
  INT04                 0000ffc8   00000002  00000002  00000000  RWIX
  INT05                 0000ffca   00000002  00000002  00000000  RWIX
  INT06                 0000ffcc   00000002  00000002  00000000  RWIX
  INT07                 0000ffce   00000002  00000002  00000000  RWIX
  INT08                 0000ffd0   00000002  00000002  00000000  RWIX
  INT09                 0000ffd2   00000002  00000002  00000000  RWIX
  INT10                 0000ffd4   00000002  00000002  00000000  RWIX
  INT11                 0000ffd6   00000002  00000002  00000000  RWIX
  INT12                 0000ffd8   00000002  00000002  00000000  RWIX
  INT13                 0000ffda   00000002  00000002  00000000  RWIX
  INT14                 0000ffdc   00000002  00000002  00000000  RWIX
  INT15                 0000ffde   00000002  00000002  00000000  RWIX
  INT16                 0000ffe0   00000002  00000002  00000000  RWIX
  INT17                 0000ffe2   00000002  00000002  00000000  RWIX
  INT18                 0000ffe4   00000002  00000002  00000000  RWIX
  INT19                 0000ffe6   00000002  00000002  00000000  RWIX
  INT20                 0000ffe8   00000002  00000002  00000000  RWIX
  INT21                 0000ffea   00000002  00000002  00000000  RWIX
  INT22                 0000ffec   00000002  00000002  00000000  RWIX
  INT23                 0000ffee   00000002  00000002  00000000  RWIX
  INT24                 0000fff0   00000002  00000002  00000000  RWIX
  INT25                 0000fff2   00000002  00000002  00000000  RWIX
  INT26                 0000fff4   00000002  00000002  00000000  RWIX
  INT27                 0000fff6   00000002  00000002  00000000  RWIX
  INT28                 0000fff8   00000002  00000002  00000000  RWIX
  INT29                 0000fffa   00000002  00000002  00000000  RWIX
  INT30                 0000fffc   00000002  00000002  00000000  RWIX
  RESET                 0000fffe   00000002  00000002  00000000  RWIX
  FLASH2                00010000   00010000  000022ae  0000dd52  RWIX


SECTION ALLOCATION MAP

 output                                  attributes/
section   page    origin      length       input sections
--------  ----  ----------  ----------   ----------------
.init_array 
*          0    00002100    00000000     UNINITIALIZED

.bss       0    00001100    00000226     UNINITIALIZED
                  00001100    000000a0     (.common:__TI_tmpnams)
                  000011a0    000000a0     (.common:data_from_ble)
                  00001240    000000a0     (.common:data_from_terminal)
                  000012e0    00000012     (.common:pool$1)
                  000012f2    0000000c     (.common:accelerometer_data)
                  000012fe    00000008     (.common:parmbuf)
                  00001306    00000004     (.common:__TI_cleanup_ptr)
                  0000130a    00000004     (.common:__TI_dtors_ptr)
                  0000130e    00000004     (.common:acc_divider)
                  00001312    00000004     (.common:curr_vla_pool)
                  00001316    00000004     (.common:sys_base)
                  0000131a    00000004     (.common:sys_free)
                  0000131e    00000002     (.common:COLS)
                  00001320    00000002     (.common:aux_j)
                  00001322    00000002     (.common:j)
                  00001324    00000002     (.common:memsize)

.TI.noinit 
*          0    00001100    00000000     UNINITIALIZED

.data      0    00001326    0000019e     UNINITIALIZED
                  00001326    000000c8     rts430x_lc_rd_eabi.lib : defs.obj (.data:_ftable)
                  000013ee    00000078                            : lowlev.obj (.data:_device)
                  00001466    0000003c                            : lowlev.obj (.data:_stream)
                  000014a2    00000008     interrupts.obj (.data)
                  000014aa    00000008     rts430x_lc_rd_eabi.lib : _lock.obj (.data)
                  000014b2    00000004     ble.obj (.data)
                  000014b6    00000004     rts430x_lc_rd_eabi.lib : lowlev.obj (.data)
                  000014ba    00000004     sensors.obj (.data)
                  000014be    00000002     rts430x_lc_rd_eabi.lib : defs.obj (.data)
                  000014c0    00000002                            : fopen.obj (.data)
                  000014c2    00000002                            : memory.obj (.data)

.TI.persistent 
*          0    00001326    00000000     UNINITIALIZED

.cio       0    000014c4    00000120     UNINITIALIZED
                  000014c4    00000120     rts430x_lc_rd_eabi.lib : trgmsg.obj (.cio)

.sysmem    0    000015e4    00000050     UNINITIALIZED
                  000015e4    00000006     rts430x_lc_rd_eabi.lib : memory.obj (.sysmem)
                  000015ea    0000004a     --HOLE--

.stack     0    000020b0    00000050     UNINITIALIZED
                  000020b0    00000004     rts430x_lc_rd_eabi.lib : boot.obj (.stack)
                  000020b4    0000004c     --HOLE--

.text:_isr 
*          0    00002100    00000084     
                  00002100    00000030     interrupts.obj (.text:_isr:USCI0RX_ISR)
                  00002130    00000030     interrupts.obj (.text:_isr:USCI1RX_ISR)
                  00002160    0000001c     rts430x_lc_rd_eabi.lib : boot.obj (.text:_isr:_c_int00_noargs)
                  0000217c    00000008     interrupts.obj (.text:_isr:Timer_A)

.const     0    00002184    000000f8     
                  00002184    00000048     main.obj (.const:.string)
                  000021cc    00000038     ble.obj (.const:.string)
                  00002204    00000036     rts430x_lc_rd_eabi.lib : vla_alloc.obj (.const:.string)
                  0000223a    00000028     sensors.obj (.const:$P$T0$1)
                  00002262    00000014     rts430x_lc_rd_eabi.lib : _printfi_min.obj (.const:.string)
                  00002276    00000006     main.obj (.const)

.cinit     0    0000227c    00000094     
                  0000227c    00000064     (.cinit..data.load) [load image, compression = rle]
                  000022e0    0000000c     (__TI_handler_table)
                  000022ec    00000006     (.cinit..bss.load) [load image, compression = zero_init]
                  000022f2    00000006     (.cinit..cio.load) [load image, compression = zero_init]
                  000022f8    00000018     (__TI_cinit_table)

RESERVED0 
*          0    0000ffc0    00000002     
                  0000ffc0    00000002     rts430x_lc_rd_eabi.lib : int00.obj (.int00)

RESERVED1 
*          0    0000ffc2    00000002     
                  0000ffc2    00000002     rts430x_lc_rd_eabi.lib : int01.obj (.int01)

RESERVED2 
*          0    0000ffc4    00000002     
                  0000ffc4    00000002     rts430x_lc_rd_eabi.lib : int02.obj (.int02)

RESERVED3 
*          0    0000ffc6    00000002     
                  0000ffc6    00000002     rts430x_lc_rd_eabi.lib : int03.obj (.int03)

RESERVED4 
*          0    0000ffc8    00000002     
                  0000ffc8    00000002     rts430x_lc_rd_eabi.lib : int04.obj (.int04)

RESERVED5 
*          0    0000ffca    00000002     
                  0000ffca    00000002     rts430x_lc_rd_eabi.lib : int05.obj (.int05)

RESERVED6 
*          0    0000ffcc    00000002     
                  0000ffcc    00000002     rts430x_lc_rd_eabi.lib : int06.obj (.int06)

RESERVED7 
*          0    0000ffce    00000002     
                  0000ffce    00000002     rts430x_lc_rd_eabi.lib : int07.obj (.int07)

RESERVED8 
*          0    0000ffd0    00000002     
                  0000ffd0    00000002     rts430x_lc_rd_eabi.lib : int08.obj (.int08)

RESERVED9 
*          0    0000ffd2    00000002     
                  0000ffd2    00000002     rts430x_lc_rd_eabi.lib : int09.obj (.int09)

RESERVED10 
*          0    0000ffd4    00000002     
                  0000ffd4    00000002     rts430x_lc_rd_eabi.lib : int10.obj (.int10)

RESERVED11 
*          0    0000ffd6    00000002     
                  0000ffd6    00000002     rts430x_lc_rd_eabi.lib : int11.obj (.int11)

RESERVED12 
*          0    0000ffd8    00000002     
                  0000ffd8    00000002     rts430x_lc_rd_eabi.lib : int12.obj (.int12)

RESERVED13 
*          0    0000ffda    00000002     
                  0000ffda    00000002     rts430x_lc_rd_eabi.lib : int13.obj (.int13)

DAC12      0    0000ffdc    00000002     
                  0000ffdc    00000002     rts430x_lc_rd_eabi.lib : int14.obj (.int14)

DMA        0    0000ffde    00000002     
                  0000ffde    00000002     rts430x_lc_rd_eabi.lib : int15.obj (.int15)

USCIAB1TX 
*          0    0000ffe0    00000002     
                  0000ffe0    00000002     rts430x_lc_rd_eabi.lib : int16.obj (.int16)

USCIAB1RX 
*          0    0000ffe2    00000002     
                  0000ffe2    00000002     interrupts.obj (.int17)

PORT1      0    0000ffe4    00000002     
                  0000ffe4    00000002     rts430x_lc_rd_eabi.lib : int18.obj (.int18)

PORT2      0    0000ffe6    00000002     
                  0000ffe6    00000002     rts430x_lc_rd_eabi.lib : int19.obj (.int19)

RESERVED20 
*          0    0000ffe8    00000002     
                  0000ffe8    00000002     rts430x_lc_rd_eabi.lib : int20.obj (.int20)

ADC12      0    0000ffea    00000002     
                  0000ffea    00000002     rts430x_lc_rd_eabi.lib : int21.obj (.int21)

USCIAB0TX 
*          0    0000ffec    00000002     
                  0000ffec    00000002     rts430x_lc_rd_eabi.lib : int22.obj (.int22)

USCIAB0RX 
*          0    0000ffee    00000002     
                  0000ffee    00000002     interrupts.obj (.int23)

TIMERA1    0    0000fff0    00000002     
                  0000fff0    00000002     rts430x_lc_rd_eabi.lib : int24.obj (.int24)

TIMERA0    0    0000fff2    00000002     
                  0000fff2    00000002     interrupts.obj (.int25)

WDT        0    0000fff4    00000002     
                  0000fff4    00000002     rts430x_lc_rd_eabi.lib : int26.obj (.int26)

COMPARATORA 
*          0    0000fff6    00000002     
                  0000fff6    00000002     rts430x_lc_rd_eabi.lib : int27.obj (.int27)

TIMERB1    0    0000fff8    00000002     
                  0000fff8    00000002     rts430x_lc_rd_eabi.lib : int28.obj (.int28)

TIMERB0    0    0000fffa    00000002     
                  0000fffa    00000002     rts430x_lc_rd_eabi.lib : int29.obj (.int29)

NMI        0    0000fffc    00000002     
                  0000fffc    00000002     rts430x_lc_rd_eabi.lib : int30.obj (.int30)

.reset     0    0000fffe    00000002     
                  0000fffe    00000002     rts430x_lc_rd_eabi.lib : boot.obj (.reset)

.text      0    00010000    000022ae     
                  00010000    00000198     rts430x_lc_rd_eabi.lib : vla_alloc.obj (.text:__vla_alloc)
                  00010198    00000144                            : memory.obj (.text:realloc)
                  000102dc    00000132                            : _printfi_min.obj (.text:_setfield)
                  0001040e    0000010c     main.obj (.text:dumpToTXT)
                  0001051a    00000106     rts430x_lc_rd_eabi.lib : fopen.obj (.text:_openfile)
                  00010620    000000f0                            : fputs.obj (.text:fputs)
                  00010710    000000ee     main.obj (.text:floatToHex)
                  000107fe    000000e2     main.obj (.text:main)
                  000108e0    000000e0     rts430x_lc_rd_eabi.lib : setvbuf.obj (.text:setvbuf)
                  000109c0    000000d2                            : _printfi_min.obj (.text:__TI_printfi_minimal)
                  00010a92    000000d0                            : vla_alloc.obj (.text:__vla_dealloc)
                  00010b62    000000ba                            : memory.obj (.text:malloc)
                  00010c1c    000000b2                            : lowlev.obj (.text:open)
                  00010cce    000000a8                            : vla_alloc.obj (.text:_Z21free_dead_allocationsPv)
                  00010d76    000000a4     sensors.obj (.text:collectSensorData)
                  00010e1a    0000009e     rts430x_lc_rd_eabi.lib : trgdrv.obj (.text:HOSTlseek)
                  00010eb8    00000090                            : fputc.obj (.text:fputc)
                  00010f48    0000008e                            : memory.obj (.text:free)
                  00010fd6    0000008e                            : fs_div.obj (.text)
                  00011064    00000080                            : fopen.obj (.text:_search_fp)
                  000110e4    0000007e                            : _io_perm.obj (.text:__TI_wrt_ok)
                  00011162    0000007e     sensors.obj (.text:set_acc_scale)
                  000111e0    00000074     rts430x_lc_rd_eabi.lib : trgdrv.obj (.text:HOSTrename)
                  00011254    00000074     sensors.obj (.text:read_acc)
                  000112c8    00000070     uart.obj (.text:UART_Init)
                  00011338    00000070     rts430x_lc_rd_eabi.lib : fclose.obj (.text:__TI_closefile)
                  000113a8    0000006e                            : trgdrv.obj (.text:HOSTopen)
                  00011416    0000006e                            : autoinit.obj (.text:_auto_init_hold_wdt)
                  00011484    0000006c     uart.obj (.text:DEBUG_UART_Print)
                  000114f0    0000006a     rts430x_lc_rd_eabi.lib : trgdrv.obj (.text:HOSTwrite)
                  0001155a    0000006a                            : fseek.obj (.text:fseek)
                  000115c4    00000068                            : trgdrv.obj (.text:HOSTread)
                  0001162c    00000064                            : fflush.obj (.text:__TI_doflush)
                  00011690    00000064                            : cvtfd.obj (.text:__mspabi_cvtfd)
                  000116f4    00000062                            : copy_decompress_rle.obj (.text:__TI_decompress_rle_core)
                  00011756    00000060     sensors.obj (.text:MPU_Init)
                  000117b6    0000005a     ble.obj (.text:BLE_setPublicChar)
                  00011810    0000005a     rts430x_lc_rd_eabi.lib : _printfi_min.obj (.text:_ltostr)
                  0001186a    0000005a                            : lowlev.obj (.text:close)
                  000118c4    0000005a                            : lowlev.obj (.text:getdevice)
                  0001191e    00000058     ble.obj (.text:DEBUG_BLE_Echo_To_Terminal)
                  00011976    00000050     rts430x_lc_rd_eabi.lib : fprintf.obj (.text:fprintf)
                  000119c6    0000004c                            : trgdrv.obj (.text:HOSTclose)
                  00011a12    0000004c                            : _printfi_min.obj (.text:_pproc_diouxp)
                  00011a5e    0000004a                            : printf.obj (.text:printf)
                  00011aa8    00000048                            : _printfi_min.obj (.text:_pproc_str)
                  00011af0    00000046                            : trgdrv.obj (.text:HOSTunlink)
                  00011b36    00000044                            : vla_alloc.obj (.text:_Z18init_curr_vla_poolv)
                  00011b7a    00000044                            : vla_alloc.obj (.text:_Z31increase_curr_vla_pool_capacityv)
                  00011bbe    00000042     ble.obj (.text:BLE_changeNameTo)
                  00011c00    00000042     rts430x_lc_rd_eabi.lib : memory.obj (.text:minit)
                  00011c42    00000042     sensors.obj (.text:spi_mpu_mRead)
                  00011c84    0000003e     rts430x_lc_rd_eabi.lib : _printfi_min.obj (.text:_getarg_diouxp)
                  00011cc2    0000003e                            : asr32.obj (.text:l_asr_const)
                  00011d00    0000003e                            : lsl32.obj (.text:l_lsl_const)
                  00011d3e    0000003e                            : lsr32.obj (.text:l_lsr_const)
                  00011d7c    0000003e                            : lowlev.obj (.text:lseek)
                  00011dba    0000003c                            : lowlev.obj (.text:write)
                  00011df6    0000003a     spi.obj (.text:SPI_Init)
                  00011e30    00000036     rts430x_lc_rd_eabi.lib : fopen.obj (.text:__TI_cleanup)
                  00011e66    00000036                            : trgmsg.obj (.text:__TI_writemsg)
                  00011e9c    00000036                            : fs_itof.obj (.text)
                  00011ed2    00000032                            : trgmsg.obj (.text:__TI_readmsg)
                  00011f04    00000032                            : strncpy.obj (.text:strncpy)
                  00011f36    00000030     fm.obj (.text:collectFMData)
                  00011f66    00000030     rts430x_lc_rd_eabi.lib : lowlev.obj (.text:unlink)
                  00011f96    0000002e                            : exit.obj (.text:exit)
                  00011fc4    0000002e                            : lowlev.obj (.text:finddevice)
                  00011ff2    0000002c                            : div16s.obj (.text)
                  0001201e    00000028     main.obj (.text:CLK_Init)
                  00012046    00000024     rts430x_lc_rd_eabi.lib : copy_zero_init.obj (.text:decompress:ZI:__TI_zero_init)
                  0001206a    00000024                            : fopen.obj (.text:fopen)
                  0001208e    00000022                            : fclose.obj (.text:fclose)
                  000120b0    00000020                            : memccpy.obj (.text:memccpy)
                  000120d0    0000001c     sensors.obj (.text:spi_mpu_write)
                  000120ec    0000001c     rts430x_lc_rd_eabi.lib : strcmp.obj (.text:strcmp)
                  00012108    0000001a                            : _printfi_min.obj (.text:_div)
                  00012122    0000001a                            : strchr.obj (.text:strchr)
                  0001213c    00000016     ble.obj (.text:BLE_Init)
                  00012152    00000016     ble.obj (.text:BLE_startAdvertisement)
                  00012168    00000016     ble.obj (.text:BLE_turnOff)
                  0001217e    00000016     ble.obj (.text:BLE_turnOn)
                  00012194    00000016     rts430x_lc_rd_eabi.lib : memchr.obj (.text:memchr)
                  000121aa    00000016                            : memset.obj (.text:memset)
                  000121c0    00000016                            : div16u.obj (.text)
                  000121d6    00000016                            : mult16_hw.obj (.text)
                  000121ec    00000016     sensors.obj (.text:spi_exchg)
                  00012202    00000014     rts430x_lc_rd_eabi.lib : memcpy.obj (.text:memcpy)
                  00012216    00000014     sensors.obj (.text:spi_mpu_release)
                  0001222a    00000014     sensors.obj (.text:spi_mpu_select)
                  0001223e    00000012     rts430x_lc_rd_eabi.lib : copy_decompress_none.obj (.text:decompress:none:__TI_decompress_none)
                  00012250    00000012                            : strcpy.obj (.text:strcpy)
                  00012262    0000000e                            : strlen.obj (.text:strlen)
                  00012270    0000000e     sensors.obj (.text:whoami)
                  0001227e    00000006     rts430x_lc_rd_eabi.lib : isr_trap.obj (.text:__TI_ISR_TRAP)
                  00012284    00000006                            : fprintf.obj (.text:_outc)
                  0001228a    00000006                            : printf.obj (.text:_outc)
                  00012290    00000006                            : copy_decompress_rle.obj (.text:decompress:rle24:__TI_decompress_rle24)
                  00012296    00000004                            : error.obj (.text:__abort_execution)
                  0001229a    00000004                            : fprintf.obj (.text:_outs)
                  0001229e    00000004                            : printf.obj (.text:_outs)
                  000122a2    00000004                            : pre_init.obj (.text:_system_pre_init)
                  000122a6    00000004                            : exit.obj (.text:abort)
                  000122aa    00000002     i2c.obj (.text:I2C_Init)
                  000122ac    00000002     rts430x_lc_rd_eabi.lib : _lock.obj (.text:_nop)


LINKER GENERATED COPY TABLES

__TI_cinit_table @ 000022f8 records: 3, size/record: 8, table size: 24
	.data: load addr=0000227c, load size=00000064 bytes, run addr=00001326, run size=0000019e bytes, compression=rle
	.bss: load addr=000022ec, load size=00000006 bytes, run addr=00001100, run size=00000226 bytes, compression=zero_init
	.cio: load addr=000022f2, load size=00000006 bytes, run addr=000014c4, run size=00000120 bytes, compression=zero_init


LINKER GENERATED HANDLER TABLE

__TI_handler_table @ 000022e0 records: 3, size/record: 4, table size: 12
	index: 0, handler: __TI_zero_init
	index: 1, handler: __TI_decompress_rle24
	index: 2, handler: __TI_decompress_none


GLOBAL SYMBOLS: SORTED ALPHABETICALLY BY Name 

address    name
--------   ----
000001a0   ADC12CTL0
000001a2   ADC12CTL1
000001a6   ADC12IE
000001a4   ADC12IFG
000001a8   ADC12IV
00000080   ADC12MCTL0
00000081   ADC12MCTL1
0000008a   ADC12MCTL10
0000008b   ADC12MCTL11
0000008c   ADC12MCTL12
0000008d   ADC12MCTL13
0000008e   ADC12MCTL14
0000008f   ADC12MCTL15
00000082   ADC12MCTL2
00000083   ADC12MCTL3
00000084   ADC12MCTL4
00000085   ADC12MCTL5
00000086   ADC12MCTL6
00000087   ADC12MCTL7
00000088   ADC12MCTL8
00000089   ADC12MCTL9
00000140   ADC12MEM0
00000142   ADC12MEM1
00000154   ADC12MEM10
00000156   ADC12MEM11
00000158   ADC12MEM12
0000015a   ADC12MEM13
0000015c   ADC12MEM14
0000015e   ADC12MEM15
00000144   ADC12MEM2
00000146   ADC12MEM3
00000148   ADC12MEM4
0000014a   ADC12MEM5
0000014c   ADC12MEM6
0000014e   ADC12MEM7
00000150   ADC12MEM8
00000152   ADC12MEM9
00000057   BCSCTL1
00000058   BCSCTL2
00000053   BCSCTL3
0001213c   BLE_Init
00011bbe   BLE_changeNameTo
000117b6   BLE_setPublicChar
00012152   BLE_startAdvertisement
00012168   BLE_turnOff
0001217e   BLE_turnOn
000122a6   C$$EXIT
00011e98   C$$IO$$
00000059   CACTL1
0000005a   CACTL2
000010fb   CALBC1_12MHZ
000010f9   CALBC1_16MHZ
000010ff   CALBC1_1MHZ
000010fd   CALBC1_8MHZ
000010fa   CALDCO_12MHZ
000010f8   CALDCO_16MHZ
000010fe   CALDCO_1MHZ
000010fc   CALDCO_8MHZ
0000005b   CAPD
0001201e   CLK_Init
0000131e   COLS
000001c0   DAC12_0CTL
000001c8   DAC12_0DAT
000001c2   DAC12_1CTL
000001ca   DAC12_1DAT
00000056   DCOCTL
0001191e   DEBUG_BLE_Echo_To_Terminal
00011484   DEBUG_UART_Print
000001d0   DMA0CTL
000001d6   DMA0DA
000001d6   DMA0DAL
000001d2   DMA0SA
000001d2   DMA0SAL
000001da   DMA0SZ
000001dc   DMA1CTL
000001e2   DMA1DA
000001e2   DMA1DAL
000001de   DMA1SA
000001de   DMA1SAL
000001e6   DMA1SZ
000001e8   DMA2CTL
000001ee   DMA2DA
000001ee   DMA2DAL
000001ea   DMA2SA
000001ea   DMA2SAL
000001f2   DMA2SZ
00000122   DMACTL0
00000124   DMACTL1
00000126   DMAIV
00000128   FCTL1
0000012a   FCTL2
0000012c   FCTL3
000001be   FCTL4
000119c6   HOSTclose
00010e1a   HOSTlseek
000113a8   HOSTopen
000115c4   HOSTread
000111e0   HOSTrename
00011af0   HOSTunlink
000114f0   HOSTwrite
000122aa   I2C_Init
00000000   IE1
00000001   IE2
00000002   IFG1
00000003   IFG2
00000134   MAC
00000136   MACS
00011756   MPU_Init
00000130   MPY
00000132   MPYS
00000138   OP2
00000022   P1DIR
00000025   P1IE
00000024   P1IES
00000023   P1IFG
00000020   P1IN
00000021   P1OUT
00000027   P1REN
00000026   P1SEL
0000002a   P2DIR
0000002d   P2IE
0000002c   P2IES
0000002b   P2IFG
00000028   P2IN
00000029   P2OUT
0000002f   P2REN
0000002e   P2SEL
0000001a   P3DIR
00000018   P3IN
00000019   P3OUT
00000010   P3REN
0000001b   P3SEL
0000001e   P4DIR
0000001c   P4IN
0000001d   P4OUT
00000011   P4REN
0000001f   P4SEL
00000032   P5DIR
00000030   P5IN
00000031   P5OUT
00000012   P5REN
00000033   P5SEL
00000036   P6DIR
00000034   P6IN
00000035   P6OUT
00000013   P6REN
00000037   P6SEL
0000003c   P7DIR
00000038   P7IN
0000003a   P7OUT
00000014   P7REN
0000003e   P7SEL
0000003d   P8DIR
00000039   P8IN
0000003b   P8OUT
00000015   P8REN
0000003f   P8SEL
0000003c   PADIR
00000038   PAIN
0000003a   PAOUT
00000014   PAREN
0000003e   PASEL
0000013c   RESHI
0000013a   RESLO
0000227a   ROWS
00011df6   SPI_Init
0000013e   SUMEXT
00000055   SVSCTL
00000172   TACCR0
00000174   TACCR1
00000176   TACCR2
00000162   TACCTL0
00000164   TACCTL1
00000166   TACCTL2
00000160   TACTL
0000012e   TAIV
00000170   TAR
00000192   TBCCR0
00000194   TBCCR1
00000196   TBCCR2
00000198   TBCCR3
0000019a   TBCCR4
0000019c   TBCCR5
0000019e   TBCCR6
00000182   TBCCTL0
00000184   TBCCTL1
00000186   TBCCTL2
00000188   TBCCTL3
0000018a   TBCCTL4
0000018c   TBCCTL5
0000018e   TBCCTL6
00000180   TBCTL
0000011e   TBIV
00000190   TBR
000010db   TLV_ADC12_1_LEN
000010da   TLV_ADC12_1_TAG
000010c0   TLV_CHECKSUM
000010f7   TLV_DCO_30_LEN
000010f6   TLV_DCO_30_TAG
0000217c   Timer_A
000112c8   UART_Init
00000006   UC1IE
00000007   UC1IFG
0000005d   UCA0ABCTL
00000062   UCA0BR0
00000063   UCA0BR1
00000060   UCA0CTL0
00000061   UCA0CTL1
0000005f   UCA0IRRCTL
0000005e   UCA0IRTCTL
00000064   UCA0MCTL
00000066   UCA0RXBUF
00000065   UCA0STAT
00000067   UCA0TXBUF
000000cd   UCA1ABCTL
000000d2   UCA1BR0
000000d3   UCA1BR1
000000d0   UCA1CTL0
000000d1   UCA1CTL1
000000cf   UCA1IRRCTL
000000ce   UCA1IRTCTL
000000d4   UCA1MCTL
000000d6   UCA1RXBUF
000000d5   UCA1STAT
000000d7   UCA1TXBUF
0000006a   UCB0BR0
0000006b   UCB0BR1
00000068   UCB0CTL0
00000069   UCB0CTL1
0000006c   UCB0I2CIE
00000118   UCB0I2COA
0000011a   UCB0I2CSA
0000006e   UCB0RXBUF
0000006d   UCB0STAT
0000006f   UCB0TXBUF
000000da   UCB1BR0
000000db   UCB1BR1
000000d8   UCB1CTL0
000000d9   UCB1CTL1
000000dc   UCB1I2CIE
0000017c   UCB1I2COA
0000017e   UCB1I2CSA
000000de   UCB1RXBUF
000000dd   UCB1STAT
000000df   UCB1TXBUF
00002100   USCI0RX_ISR
00002130   USCI1RX_ISR
00000120   WDTCTL
000014c4   _CIOBUF_
00002100   __STACK_END
00000050   __STACK_SIZE
00000050   __SYSMEM_SIZE
000022f8   __TI_CINIT_Base
00002310   __TI_CINIT_Limit
000022e0   __TI_Handler_Table_Base
000022ec   __TI_Handler_Table_Limit
UNDEFED    __TI_INITARRAY_Base
UNDEFED    __TI_INITARRAY_Limit
0001227e   __TI_ISR_TRAP
00000001   __TI_args_main
00011e30   __TI_cleanup
00001306   __TI_cleanup_ptr
00011338   __TI_closefile
0001223e   __TI_decompress_none
00012290   __TI_decompress_rle24
0001162c   __TI_doflush
0000130a   __TI_dtors_ptr
00000001   __TI_exit
000014be   __TI_ft_end
0000ffc0   __TI_int00
0000ffc2   __TI_int01
0000ffc4   __TI_int02
0000ffc6   __TI_int03
0000ffc8   __TI_int04
0000ffca   __TI_int05
0000ffcc   __TI_int06
0000ffce   __TI_int07
0000ffd0   __TI_int08
0000ffd2   __TI_int09
0000ffd4   __TI_int10
0000ffd6   __TI_int11
0000ffd8   __TI_int12
0000ffda   __TI_int13
0000ffdc   __TI_int14
0000ffde   __TI_int15
0000ffe0   __TI_int16
0000ffe2   __TI_int17
0000ffe4   __TI_int18
0000ffe6   __TI_int19
0000ffe8   __TI_int20
0000ffea   __TI_int21
0000ffec   __TI_int22
0000ffee   __TI_int23
0000fff0   __TI_int24
0000fff2   __TI_int25
0000fff4   __TI_int26
0000fff6   __TI_int27
0000fff8   __TI_int28
0000fffa   __TI_int29
0000fffc   __TI_int30
000109c0   __TI_printfi_minimal
00011ed2   __TI_readmsg
00001100   __TI_tmpnams
00011e66   __TI_writemsg
000110e4   __TI_wrt_ok
00012046   __TI_zero_init
00012296   __abort_execution
ffffffff   __binit__
ffffffff   __c_args__
00011690   __mspabi_cvtfd
00010fd6   __mspabi_divf
00011ff2   __mspabi_divi
000121c0   __mspabi_divu
00011e9c   __mspabi_fltif
000121d6   __mspabi_mpyi_hw
00011ff2   __mspabi_remi
000121c0   __mspabi_remu
00011d38   __mspabi_slll_1
00011d14   __mspabi_slll_10
00011d10   __mspabi_slll_11
00011d0c   __mspabi_slll_12
00011d08   __mspabi_slll_13
00011d04   __mspabi_slll_14
00011d00   __mspabi_slll_15
00011d34   __mspabi_slll_2
00011d30   __mspabi_slll_3
00011d2c   __mspabi_slll_4
00011d28   __mspabi_slll_5
00011d24   __mspabi_slll_6
00011d20   __mspabi_slll_7
00011d1c   __mspabi_slll_8
00011d18   __mspabi_slll_9
00011cfa   __mspabi_sral_1
00011cd6   __mspabi_sral_10
00011cd2   __mspabi_sral_11
00011cce   __mspabi_sral_12
00011cca   __mspabi_sral_13
00011cc6   __mspabi_sral_14
00011cc2   __mspabi_sral_15
00011cf6   __mspabi_sral_2
00011cf2   __mspabi_sral_3
00011cee   __mspabi_sral_4
00011cea   __mspabi_sral_5
00011ce6   __mspabi_sral_6
00011ce2   __mspabi_sral_7
00011cde   __mspabi_sral_8
00011cda   __mspabi_sral_9
00011d76   __mspabi_srll_1
00011d52   __mspabi_srll_10
00011d4e   __mspabi_srll_11
00011d4a   __mspabi_srll_12
00011d46   __mspabi_srll_13
00011d42   __mspabi_srll_14
00011d3e   __mspabi_srll_15
00011d72   __mspabi_srll_2
00011d6e   __mspabi_srll_3
00011d6a   __mspabi_srll_4
00011d66   __mspabi_srll_5
00011d62   __mspabi_srll_6
00011d5e   __mspabi_srll_7
00011d5a   __mspabi_srll_8
00011d56   __mspabi_srll_9
00010000   __vla_alloc
00010a92   __vla_dealloc
00011416   _auto_init_hold_wdt
00002160   _c_int00
00002160   _c_int00_noargs
00001326   _ftable
000014aa   _lock
000122ac   _nop
0000fffe   _reset_vector
000020b0   _stack
000015e4   _sys_memory
000122a2   _system_pre_init
000014ae   _unlock
000122a6   abort
0000130e   acc_divider
000012f2   accelerometer_data
ffffffff   binit
0001186a   close
00011f36   collectFMData
00010d76   collectSensorData
000014ba   data1
000011a0   data_from_ble
00001240   data_from_terminal
0001040e   dumpToTXT
00011f96   exit
0001208e   fclose
00010710   floatToHex
0001206a   fopen
00011976   fprintf
00010eb8   fputc
00010620   fputs
00010f48   free
0001155a   fseek
00011d7c   lseek
000107fe   main
00010b62   malloc
000120b0   memccpy
00012194   memchr
00012202   memcpy
000121aa   memset
00011c00   minit
00010c1c   open
00011a5e   printf
00011254   read_acc
00010198   realloc
00011f66   remove
00011162   set_acc_scale
000108e0   setvbuf
000121ec   spi_exchg
00011c42   spi_mpu_mRead
00012216   spi_mpu_release
0001222a   spi_mpu_select
000120d0   spi_mpu_write
00012122   strchr
000120ec   strcmp
00012250   strcpy
00012262   strlen
00011f04   strncpy
000014b2   terminal_received
000014b4   terminal_sent
00011f66   unlink
00012270   whoami
00011dba   write


GLOBAL SYMBOLS: SORTED BY Symbol Address 

address    name
--------   ----
00000000   IE1
00000001   IE2
00000001   __TI_args_main
00000001   __TI_exit
00000002   IFG1
00000003   IFG2
00000006   UC1IE
00000007   UC1IFG
00000010   P3REN
00000011   P4REN
00000012   P5REN
00000013   P6REN
00000014   P7REN
00000014   PAREN
00000015   P8REN
00000018   P3IN
00000019   P3OUT
0000001a   P3DIR
0000001b   P3SEL
0000001c   P4IN
0000001d   P4OUT
0000001e   P4DIR
0000001f   P4SEL
00000020   P1IN
00000021   P1OUT
00000022   P1DIR
00000023   P1IFG
00000024   P1IES
00000025   P1IE
00000026   P1SEL
00000027   P1REN
00000028   P2IN
00000029   P2OUT
0000002a   P2DIR
0000002b   P2IFG
0000002c   P2IES
0000002d   P2IE
0000002e   P2SEL
0000002f   P2REN
00000030   P5IN
00000031   P5OUT
00000032   P5DIR
00000033   P5SEL
00000034   P6IN
00000035   P6OUT
00000036   P6DIR
00000037   P6SEL
00000038   P7IN
00000038   PAIN
00000039   P8IN
0000003a   P7OUT
0000003a   PAOUT
0000003b   P8OUT
0000003c   P7DIR
0000003c   PADIR
0000003d   P8DIR
0000003e   P7SEL
0000003e   PASEL
0000003f   P8SEL
00000050   __STACK_SIZE
00000050   __SYSMEM_SIZE
00000053   BCSCTL3
00000055   SVSCTL
00000056   DCOCTL
00000057   BCSCTL1
00000058   BCSCTL2
00000059   CACTL1
0000005a   CACTL2
0000005b   CAPD
0000005d   UCA0ABCTL
0000005e   UCA0IRTCTL
0000005f   UCA0IRRCTL
00000060   UCA0CTL0
00000061   UCA0CTL1
00000062   UCA0BR0
00000063   UCA0BR1
00000064   UCA0MCTL
00000065   UCA0STAT
00000066   UCA0RXBUF
00000067   UCA0TXBUF
00000068   UCB0CTL0
00000069   UCB0CTL1
0000006a   UCB0BR0
0000006b   UCB0BR1
0000006c   UCB0I2CIE
0000006d   UCB0STAT
0000006e   UCB0RXBUF
0000006f   UCB0TXBUF
00000080   ADC12MCTL0
00000081   ADC12MCTL1
00000082   ADC12MCTL2
00000083   ADC12MCTL3
00000084   ADC12MCTL4
00000085   ADC12MCTL5
00000086   ADC12MCTL6
00000087   ADC12MCTL7
00000088   ADC12MCTL8
00000089   ADC12MCTL9
0000008a   ADC12MCTL10
0000008b   ADC12MCTL11
0000008c   ADC12MCTL12
0000008d   ADC12MCTL13
0000008e   ADC12MCTL14
0000008f   ADC12MCTL15
000000cd   UCA1ABCTL
000000ce   UCA1IRTCTL
000000cf   UCA1IRRCTL
000000d0   UCA1CTL0
000000d1   UCA1CTL1
000000d2   UCA1BR0
000000d3   UCA1BR1
000000d4   UCA1MCTL
000000d5   UCA1STAT
000000d6   UCA1RXBUF
000000d7   UCA1TXBUF
000000d8   UCB1CTL0
000000d9   UCB1CTL1
000000da   UCB1BR0
000000db   UCB1BR1
000000dc   UCB1I2CIE
000000dd   UCB1STAT
000000de   UCB1RXBUF
000000df   UCB1TXBUF
00000118   UCB0I2COA
0000011a   UCB0I2CSA
0000011e   TBIV
00000120   WDTCTL
00000122   DMACTL0
00000124   DMACTL1
00000126   DMAIV
00000128   FCTL1
0000012a   FCTL2
0000012c   FCTL3
0000012e   TAIV
00000130   MPY
00000132   MPYS
00000134   MAC
00000136   MACS
00000138   OP2
0000013a   RESLO
0000013c   RESHI
0000013e   SUMEXT
00000140   ADC12MEM0
00000142   ADC12MEM1
00000144   ADC12MEM2
00000146   ADC12MEM3
00000148   ADC12MEM4
0000014a   ADC12MEM5
0000014c   ADC12MEM6
0000014e   ADC12MEM7
00000150   ADC12MEM8
00000152   ADC12MEM9
00000154   ADC12MEM10
00000156   ADC12MEM11
00000158   ADC12MEM12
0000015a   ADC12MEM13
0000015c   ADC12MEM14
0000015e   ADC12MEM15
00000160   TACTL
00000162   TACCTL0
00000164   TACCTL1
00000166   TACCTL2
00000170   TAR
00000172   TACCR0
00000174   TACCR1
00000176   TACCR2
0000017c   UCB1I2COA
0000017e   UCB1I2CSA
00000180   TBCTL
00000182   TBCCTL0
00000184   TBCCTL1
00000186   TBCCTL2
00000188   TBCCTL3
0000018a   TBCCTL4
0000018c   TBCCTL5
0000018e   TBCCTL6
00000190   TBR
00000192   TBCCR0
00000194   TBCCR1
00000196   TBCCR2
00000198   TBCCR3
0000019a   TBCCR4
0000019c   TBCCR5
0000019e   TBCCR6
000001a0   ADC12CTL0
000001a2   ADC12CTL1
000001a4   ADC12IFG
000001a6   ADC12IE
000001a8   ADC12IV
000001be   FCTL4
000001c0   DAC12_0CTL
000001c2   DAC12_1CTL
000001c8   DAC12_0DAT
000001ca   DAC12_1DAT
000001d0   DMA0CTL
000001d2   DMA0SA
000001d2   DMA0SAL
000001d6   DMA0DA
000001d6   DMA0DAL
000001da   DMA0SZ
000001dc   DMA1CTL
000001de   DMA1SA
000001de   DMA1SAL
000001e2   DMA1DA
000001e2   DMA1DAL
000001e6   DMA1SZ
000001e8   DMA2CTL
000001ea   DMA2SA
000001ea   DMA2SAL
000001ee   DMA2DA
000001ee   DMA2DAL
000001f2   DMA2SZ
000010c0   TLV_CHECKSUM
000010da   TLV_ADC12_1_TAG
000010db   TLV_ADC12_1_LEN
000010f6   TLV_DCO_30_TAG
000010f7   TLV_DCO_30_LEN
000010f8   CALDCO_16MHZ
000010f9   CALBC1_16MHZ
000010fa   CALDCO_12MHZ
000010fb   CALBC1_12MHZ
000010fc   CALDCO_8MHZ
000010fd   CALBC1_8MHZ
000010fe   CALDCO_1MHZ
000010ff   CALBC1_1MHZ
00001100   __TI_tmpnams
000011a0   data_from_ble
00001240   data_from_terminal
000012f2   accelerometer_data
00001306   __TI_cleanup_ptr
0000130a   __TI_dtors_ptr
0000130e   acc_divider
0000131e   COLS
00001326   _ftable
000014aa   _lock
000014ae   _unlock
000014b2   terminal_received
000014b4   terminal_sent
000014ba   data1
000014be   __TI_ft_end
000014c4   _CIOBUF_
000015e4   _sys_memory
000020b0   _stack
00002100   USCI0RX_ISR
00002100   __STACK_END
00002130   USCI1RX_ISR
00002160   _c_int00
00002160   _c_int00_noargs
0000217c   Timer_A
0000227a   ROWS
000022e0   __TI_Handler_Table_Base
000022ec   __TI_Handler_Table_Limit
000022f8   __TI_CINIT_Base
00002310   __TI_CINIT_Limit
0000ffc0   __TI_int00
0000ffc2   __TI_int01
0000ffc4   __TI_int02
0000ffc6   __TI_int03
0000ffc8   __TI_int04
0000ffca   __TI_int05
0000ffcc   __TI_int06
0000ffce   __TI_int07
0000ffd0   __TI_int08
0000ffd2   __TI_int09
0000ffd4   __TI_int10
0000ffd6   __TI_int11
0000ffd8   __TI_int12
0000ffda   __TI_int13
0000ffdc   __TI_int14
0000ffde   __TI_int15
0000ffe0   __TI_int16
0000ffe2   __TI_int17
0000ffe4   __TI_int18
0000ffe6   __TI_int19
0000ffe8   __TI_int20
0000ffea   __TI_int21
0000ffec   __TI_int22
0000ffee   __TI_int23
0000fff0   __TI_int24
0000fff2   __TI_int25
0000fff4   __TI_int26
0000fff6   __TI_int27
0000fff8   __TI_int28
0000fffa   __TI_int29
0000fffc   __TI_int30
0000fffe   _reset_vector
00010000   __vla_alloc
00010198   realloc
0001040e   dumpToTXT
00010620   fputs
00010710   floatToHex
000107fe   main
000108e0   setvbuf
000109c0   __TI_printfi_minimal
00010a92   __vla_dealloc
00010b62   malloc
00010c1c   open
00010d76   collectSensorData
00010e1a   HOSTlseek
00010eb8   fputc
00010f48   free
00010fd6   __mspabi_divf
000110e4   __TI_wrt_ok
00011162   set_acc_scale
000111e0   HOSTrename
00011254   read_acc
000112c8   UART_Init
00011338   __TI_closefile
000113a8   HOSTopen
00011416   _auto_init_hold_wdt
00011484   DEBUG_UART_Print
000114f0   HOSTwrite
0001155a   fseek
000115c4   HOSTread
0001162c   __TI_doflush
00011690   __mspabi_cvtfd
00011756   MPU_Init
000117b6   BLE_setPublicChar
0001186a   close
0001191e   DEBUG_BLE_Echo_To_Terminal
00011976   fprintf
000119c6   HOSTclose
00011a5e   printf
00011af0   HOSTunlink
00011bbe   BLE_changeNameTo
00011c00   minit
00011c42   spi_mpu_mRead
00011cc2   __mspabi_sral_15
00011cc6   __mspabi_sral_14
00011cca   __mspabi_sral_13
00011cce   __mspabi_sral_12
00011cd2   __mspabi_sral_11
00011cd6   __mspabi_sral_10
00011cda   __mspabi_sral_9
00011cde   __mspabi_sral_8
00011ce2   __mspabi_sral_7
00011ce6   __mspabi_sral_6
00011cea   __mspabi_sral_5
00011cee   __mspabi_sral_4
00011cf2   __mspabi_sral_3
00011cf6   __mspabi_sral_2
00011cfa   __mspabi_sral_1
00011d00   __mspabi_slll_15
00011d04   __mspabi_slll_14
00011d08   __mspabi_slll_13
00011d0c   __mspabi_slll_12
00011d10   __mspabi_slll_11
00011d14   __mspabi_slll_10
00011d18   __mspabi_slll_9
00011d1c   __mspabi_slll_8
00011d20   __mspabi_slll_7
00011d24   __mspabi_slll_6
00011d28   __mspabi_slll_5
00011d2c   __mspabi_slll_4
00011d30   __mspabi_slll_3
00011d34   __mspabi_slll_2
00011d38   __mspabi_slll_1
00011d3e   __mspabi_srll_15
00011d42   __mspabi_srll_14
00011d46   __mspabi_srll_13
00011d4a   __mspabi_srll_12
00011d4e   __mspabi_srll_11
00011d52   __mspabi_srll_10
00011d56   __mspabi_srll_9
00011d5a   __mspabi_srll_8
00011d5e   __mspabi_srll_7
00011d62   __mspabi_srll_6
00011d66   __mspabi_srll_5
00011d6a   __mspabi_srll_4
00011d6e   __mspabi_srll_3
00011d72   __mspabi_srll_2
00011d76   __mspabi_srll_1
00011d7c   lseek
00011dba   write
00011df6   SPI_Init
00011e30   __TI_cleanup
00011e66   __TI_writemsg
00011e98   C$$IO$$
00011e9c   __mspabi_fltif
00011ed2   __TI_readmsg
00011f04   strncpy
00011f36   collectFMData
00011f66   remove
00011f66   unlink
00011f96   exit
00011ff2   __mspabi_divi
00011ff2   __mspabi_remi
0001201e   CLK_Init
00012046   __TI_zero_init
0001206a   fopen
0001208e   fclose
000120b0   memccpy
000120d0   spi_mpu_write
000120ec   strcmp
00012122   strchr
0001213c   BLE_Init
00012152   BLE_startAdvertisement
00012168   BLE_turnOff
0001217e   BLE_turnOn
00012194   memchr
000121aa   memset
000121c0   __mspabi_divu
000121c0   __mspabi_remu
000121d6   __mspabi_mpyi_hw
000121ec   spi_exchg
00012202   memcpy
00012216   spi_mpu_release
0001222a   spi_mpu_select
0001223e   __TI_decompress_none
00012250   strcpy
00012262   strlen
00012270   whoami
0001227e   __TI_ISR_TRAP
00012290   __TI_decompress_rle24
00012296   __abort_execution
000122a2   _system_pre_init
000122a6   C$$EXIT
000122a6   abort
000122aa   I2C_Init
000122ac   _nop
ffffffff   __binit__
ffffffff   __c_args__
ffffffff   binit
UNDEFED    __TI_INITARRAY_Base
UNDEFED    __TI_INITARRAY_Limit

[425 symbols]
